target datalayout = "e-m:e-p270:32:32-p271:32:32-p272:64:64-i64:64-i128:128-f80:128-n8:16:32:64-S128"
target triple = "x86_64-pc-linux-gnu"

%"class.boost::urls::url_base" = type { ptr, %"class.boost::urls::url_view_base", ptr, i64 }
%"class.boost::urls::url_view_base" = type { [8 x i8], %"struct.boost::urls::detail::url_impl", ptr }
%"struct.boost::urls::detail::url_impl" = type <{ ptr, [8 x i64], [7 x i64], i64, i64, [16 x i8], i16, [2 x i8], i32, i16, i8, [5 x i8] }>

@.str.13 = private unnamed_addr constant [1 x i8] zeroinitializer, align 1

; Function Attrs: mustprogress nounwind uwtable
define linkonce_odr hidden void @_ZN5boost4urls6detail8url_implC2ENS1_10parts_base4fromE(ptr noundef nonnull align 8 dereferenceable(171) %0, i8 noundef signext %1) unnamed_addr #2 comdat align 2 {
  %3 = alloca ptr, align 8
  %4 = alloca i8, align 1
  store ptr %0, ptr %3, align 8, !tbaa !7
  store i8 %1, ptr %4, align 1, !tbaa !33
  %5 = load ptr, ptr %3, align 8
  %6 = getelementptr inbounds nuw %"struct.boost::urls::detail::url_impl", ptr %5, i32 0, i32 0
  store ptr @.str.13, ptr %6, align 8, !tbaa !34
  %7 = getelementptr inbounds nuw %"struct.boost::urls::detail::url_impl", ptr %5, i32 0, i32 1
  %8 = getelementptr inbounds i64, ptr %7, i64 8
  br label %9

9:                                                ; preds = %9, %2
  %10 = phi ptr [ %7, %2 ], [ %11, %9 ]
  store i64 0, ptr %10, align 8, !tbaa !27
  %11 = getelementptr inbounds i64, ptr %10, i64 1
  %12 = icmp eq ptr %11, %8
  br i1 %12, label %13, label %9

13:                                               ; preds = %9
  %14 = getelementptr inbounds nuw %"struct.boost::urls::detail::url_impl", ptr %5, i32 0, i32 2
  %15 = getelementptr inbounds i64, ptr %14, i64 7
  br label %16

16:                                               ; preds = %16, %13
  %17 = phi ptr [ %14, %13 ], [ %18, %16 ]
  store i64 0, ptr %17, align 8, !tbaa !27
  %18 = getelementptr inbounds i64, ptr %17, i64 1
  %19 = icmp eq ptr %18, %15
  br i1 %19, label %20, label %16

20:                                               ; preds = %16
  %21 = getelementptr inbounds nuw %"struct.boost::urls::detail::url_impl", ptr %5, i32 0, i32 3
  store i64 0, ptr %21, align 8, !tbaa !35
  %22 = getelementptr inbounds nuw %"struct.boost::urls::detail::url_impl", ptr %5, i32 0, i32 4
  store i64 0, ptr %22, align 8, !tbaa !36
  %23 = getelementptr inbounds nuw %"struct.boost::urls::detail::url_impl", ptr %5, i32 0, i32 5
  %24 = getelementptr inbounds i8, ptr %23, i64 16
  br label %25

25:                                               ; preds = %25, %20
  %26 = phi ptr [ %23, %20 ], [ %27, %25 ]
  store i8 0, ptr %26, align 1, !tbaa !37
  %27 = getelementptr inbounds i8, ptr %26, i64 1
  %28 = icmp eq ptr %27, %24
  br i1 %28, label %29, label %25

29:                                               ; preds = %25
  %30 = getelementptr inbounds nuw %"struct.boost::urls::detail::url_impl", ptr %5, i32 0, i32 6
  store i16 0, ptr %30, align 8, !tbaa !38
  %31 = getelementptr inbounds nuw %"struct.boost::urls::detail::url_impl", ptr %5, i32 0, i32 8
  store i32 0, ptr %31, align 4, !tbaa !39
  %32 = getelementptr inbounds nuw %"struct.boost::urls::detail::url_impl", ptr %5, i32 0, i32 9
  store i16 0, ptr %32, align 8, !tbaa !40
  %33 = getelementptr inbounds nuw %"struct.boost::urls::detail::url_impl", ptr %5, i32 0, i32 10
  %34 = load i8, ptr %4, align 1, !tbaa !33
  store i8 %34, ptr %33, align 2, !tbaa !41
  ret void
}

; Function Attrs: mustprogress nounwind uwtable
define void @_ZN5boost4urls3urlC2EOS1_(ptr noundef nonnull align 8 dereferenceable(216) %0, ptr noundef nonnull align 8 dereferenceable(216) %1) unnamed_addr #2 align 2 {
  %3 = alloca ptr, align 8
  %4 = alloca ptr, align 8
  %5 = alloca %"struct.boost::urls::detail::url_impl", align 8
  store ptr %0, ptr %3, align 8, !tbaa !7
  store ptr %1, ptr %4, align 8, !tbaa !7
  %6 = load ptr, ptr %3, align 8
  %7 = load ptr, ptr %4, align 8, !tbaa !7
  %8 = getelementptr inbounds i8, ptr %7, i64 8
  %9 = getelementptr inbounds nuw %"class.boost::urls::url_view_base", ptr %8, i32 0, i32 1
  call void @_ZN5boost4urls8url_baseC2ERKNS0_6detail8url_implE(ptr noundef nonnull align 8 dereferenceable(216) %6, ptr noundef nonnull align 8 dereferenceable(171) %9) #17
  store ptr getelementptr inbounds inrange(-16, 40) ({ [7 x ptr] }, ptr @_ZTVN5boost4urls3urlE, i32 0, i32 0, i32 2), ptr %6, align 8, !tbaa !14
  %10 = load ptr, ptr %4, align 8, !tbaa !7
  %11 = getelementptr inbounds nuw %"class.boost::urls::url_base", ptr %10, i32 0, i32 2
  %12 = load ptr, ptr %11, align 8, !tbaa !16
  %13 = getelementptr inbounds nuw %"class.boost::urls::url_base", ptr %6, i32 0, i32 2
  store ptr %12, ptr %13, align 8, !tbaa !16
  %14 = load ptr, ptr %4, align 8, !tbaa !7
  %15 = getelementptr inbounds nuw %"class.boost::urls::url_base", ptr %14, i32 0, i32 3
  %16 = load i64, ptr %15, align 8, !tbaa !25
  %17 = getelementptr inbounds nuw %"class.boost::urls::url_base", ptr %6, i32 0, i32 3
  store i64 %16, ptr %17, align 8, !tbaa !25
  %18 = load ptr, ptr %4, align 8, !tbaa !7
  %19 = getelementptr inbounds nuw %"class.boost::urls::url_base", ptr %18, i32 0, i32 2
  store ptr null, ptr %19, align 8, !tbaa !16
  %20 = load ptr, ptr %4, align 8, !tbaa !7
  %21 = getelementptr inbounds nuw %"class.boost::urls::url_base", ptr %20, i32 0, i32 3
  store i64 0, ptr %21, align 8, !tbaa !25
  call void @llvm.lifetime.start.p0(i64 176, ptr %5) #17
  call void @_ZN5boost4urls6detail8url_implC2ENS1_10parts_base4fromE(ptr noundef nonnull align 8 dereferenceable(171) %5, i8 noundef signext 1) #17
  %22 = load ptr, ptr %4, align 8, !tbaa !7
  %23 = getelementptr inbounds i8, ptr %22, i64 8
  %24 = getelementptr inbounds nuw %"class.boost::urls::url_view_base", ptr %23, i32 0, i32 1
  call void @llvm.memcpy.p0.p0.i64(ptr align 8 %24, ptr align 8 %5, i64 171, i1 false)
  call void @llvm.lifetime.end.p0(i64 176, ptr %5) #17
  ret void
}