; Function Attrs: mustprogress nounwind uwtable
define void @_ZN5boost4urls3urlC2EOS1_(ptr noundef nonnull align 8 dereferenceable(216) %0, ptr noundef nonnull align 8 dereferenceable(216) %1) unnamed_addr #1 align 2 {
  %3 = getelementptr inbounds i8, ptr %1, i64 16
  tail call void @_ZN5boost4urls8url_baseC2ERKNS0_6detail8url_implE(ptr noundef nonnull align 8 dereferenceable(216) %0, ptr noundef nonnull align 8 dereferenceable(171) %3) #22
  store ptr getelementptr inbounds inrange(-16, 40) (i8, ptr @_ZTVN5boost4urls3urlE, i64 16), ptr %0, align 8, !tbaa !3
  %4 = getelementptr inbounds nuw i8, ptr %1, i64 200
  %5 = load ptr, ptr %4, align 8, !tbaa !6
  %6 = getelementptr inbounds nuw i8, ptr %0, i64 200
  store ptr %5, ptr %6, align 8, !tbaa !6
  %7 = getelementptr inbounds nuw i8, ptr %1, i64 208
  %8 = load i64, ptr %7, align 8, !tbaa !28
  %9 = getelementptr inbounds nuw i8, ptr %0, i64 208
  store i64 %8, ptr %9, align 8, !tbaa !28
  tail call void @llvm.memset.p0.i64(ptr noundef nonnull align 8 dereferenceable(16) %4, i8 0, i64 16, i1 false)
  store ptr @.str.13, ptr %3, align 8
  %.sroa.4.0..sroa_idx = getelementptr inbounds i8, ptr %1, i64 24
  tail call void @llvm.memset.p0.i64(ptr noundef nonnull align 8 dereferenceable(154) %.sroa.4.0..sroa_idx, i8 0, i64 154, i1 false)
  %.sroa.57.0..sroa_idx = getelementptr inbounds i8, ptr %1, i64 180
  store i32 0, ptr %.sroa.57.0..sroa_idx, align 4
  %.sroa.6.0..sroa_idx = getelementptr inbounds i8, ptr %1, i64 184
  store i16 0, ptr %.sroa.6.0..sroa_idx, align 8
  %.sroa.7.0..sroa_idx = getelementptr inbounds i8, ptr %1, i64 186
  store i8 1, ptr %.sroa.7.0..sroa_idx, align 2
  ret void
}